(dp0
I77
(dp1
I0
F1.0
sI1
F1.0
sI2
F1.0
sI3
F1.0
sI4
F1.0
sI5
F1.0
sI6
F1.0
sI7
F1.0
sI8
F1.0
sI9
F1.0
sI10
F1.0
sI11
F1.0
sI12
F1.0
sI13
F1.0
sI14
F1.0
sI15
F1.0
sI16
F1.0
sI17
F1.0
sI18
F1.0
sI20
F1.0
sI21
F1.0
sI22
F1.0
sI23
F1.0
sI24
F1.0
sI25
F1.0
sI26
F1.0
sI27
F1.0
sI28
F1.0
sI29
F1.0
sI30
F1.0
sI32
F1.0
sI33
F1.0
sI34
F1.0
sI35
F1.0
sI36
F1.0
sI37
F1.0
sI38
F1.0
sI39
F1.0
sI40
F1.0
sI41
F1.0
sI42
F1.0
sI44
F1.0
sI45
F1.0
sI47
F1.0
sI49
F1.0
sI50
F1.0
sI51
F1.0
sI52
F1.0
sI53
F1.0
sI54
F1.0
sI55
F1.0
sI56
F1.0
sI57
F1.0
sI58
F1.0
sI59
F1.0
sI60
F1.0
sI61
F1.0
sI62
F1.0
sI63
F1.0
sI64
F1.0
sI65
F1.0
sI66
F1.0
sI67
F1.0
sI68
F1.0
sI69
F1.0
sI70
F1.0
sI71
F1.0
sI73
F1.0
sI74
F1.0
sI75
F1.0
sI76
F1.0
sI77
F1.0
sI78
F1.0
sI79
F1.0
ss.